(dp0
I1
(i__main__
product
p1
(dp2
S'currentID'
p3
I0
sS'model'
p4
(i__main__
dataModel
p5
(dp6
S'saveFile'
p7
S'save.p'
p8
sS'productList'
p9
g0
sbsS'conList'
p10
(lp11
(i__main__
pro_con
p12
(dp13
S'message'
p14
S'Worst product ever'
p15
sS'votes'
p16
I158
sS'id'
p17
I2
sba(i__main__
pro_con
p18
(dp19
g14
S'Meh'
p20
sg16
I-1000000
sg17
I4
sbasg17
I1
sS'proList'
p21
(lp22
(i__main__
pro_con
p23
(dp24
g14
S"Better than anything I've ever used"
p25
sg16
I1759
sg17
I1
sba(i__main__
pro_con
p26
(dp27
g14
S'Looks Pretty'
p28
sg16
I-15
sg17
I3
sbasbs.