(dp0
I14491524
(istructure
product
p1
(dp2
S'currentID'
p3
I4
sS'model'
p4
(istructure
dataModel
p5
(dp6
S'saveFile'
p7
S'save.p'
p8
sS'productList'
p9
g0
sbsS'conList'
p10
(lp11
(istructure
pro_con
p12
(dp13
S'message'
p14
S'720p'
p15
sS'votes'
p16
I1
sS'id'
p17
I3
sbasg17
I14491524
sS'proList'
p18
(lp19
(istructure
pro_con
p20
(dp21
g14
S'Thin'
p22
sg16
I7
sg17
I1
sba(istructure
pro_con
p23
(dp24
g14
S'Good Picture'
p25
sg16
I3
sg17
I4
sba(istructure
pro_con
p26
(dp27
g14
S'Energy Efficient'
p28
sg16
I1
sg17
I2
sbasbsI15153363
(istructure
product
p29
(dp30
g3
I2
sg4
g5
sg10
(lp31
(istructure
pro_con
p32
(dp33
g14
S'Not essential'
p34
sg16
I3
sg17
I2
sbasg17
I15153363
sg18
(lp35
(istructure
pro_con
p36
(dp37
g14
S'Inexpensive'
p38
sg16
I7
sg17
I1
sbasbsI14051076
(istructure
product
p39
(dp40
g3
I2
sg4
(istructure
dataModel
p41
(dp42
g7
S'save.p'
p43
sg9
g0
sbsg10
(lp44
(istructure
pro_con
p45
(dp46
g14
S'Expensive'
p47
sg16
I7
sg17
I2
sbasg17
I14051076
sg18
(lp48
(istructure
pro_con
p49
(dp50
g14
S'High Quality'
p51
sg16
I4
sg17
I1
sbasbsI14464597
(istructure
product
p52
(dp53
g3
I4
sg4
g5
sg10
(lp54
(istructure
pro_con
p55
(dp56
g14
S'720p'
p57
sg16
I4
sg17
I2
sba(istructure
pro_con
p58
(dp59
g14
S'Broke after a month'
p60
sg16
I-1
sg17
I3
sbasg17
I14464597
sg18
(lp61
(istructure
pro_con
p62
(dp63
g14
S'Inexpensive'
p64
sg16
I4
sg17
I1
sba(istructure
pro_con
p65
(dp66
g14
S'High Quality Screen'
p67
sg16
I-3
sg17
I4
sbasbs.