(dp0
I16343617
(istructure
product
p1
(dp2
S'currentID'
p3
I4
sS'model'
p4
(istructure
dataModel
p5
(dp6
S'saveFile'
p7
S'save.p'
p8
sS'productList'
p9
g0
sbsS'conList'
p10
(lp11
(istructure
pro_con
p12
(dp13
S'message'
p14
S'Expensive'
p15
sS'votes'
p16
I3
sS'id'
p17
I3
sbasg17
I16343617
sS'proList'
p18
(lp19
(istructure
pro_con
p20
(dp21
g14
S'Cool Controller'
p22
sg16
I4
sg17
I1
sba(istructure
pro_con
p23
(dp24
g14
S'Free Game'
p25
sg16
I3
sg17
I2
sba(istructure
pro_con
p26
(dp27
g14
S'Big Hard Drive'
p28
sg16
I1
sg17
I4
sbasbsI14491524
(istructure
product
p29
(dp30
g3
I4
sg4
(istructure
dataModel
p31
(dp32
g7
S'save.p'
p33
sg9
g0
sbsg10
(lp34
(istructure
pro_con
p35
(dp36
g14
S'720p'
p37
sg16
I1
sg17
I3
sbasg17
I14491524
sg18
(lp38
(istructure
pro_con
p39
(dp40
g14
S'Thin'
p41
sg16
I7
sg17
I1
sba(istructure
pro_con
p42
(dp43
g14
S'Good Picture'
p44
sg16
I3
sg17
I4
sba(istructure
pro_con
p45
(dp46
g14
S'Energy Efficient'
p47
sg16
I1
sg17
I2
sbasbsI14787660
(istructure
product
p48
(dp49
g3
I3
sg4
(istructure
dataModel
p50
(dp51
g7
S'save.p'
p52
sg9
g0
sbsg10
(lp53
(istructure
pro_con
p54
(dp55
g14
S'More expensive than PS4'
p56
sg16
I4
sg17
I3
sbasg17
I14787660
sg18
(lp57
(istructure
pro_con
p58
(dp59
g14
S'Free Game'
p60
sg16
I7
sg17
I1
sba(istructure
pro_con
p61
(dp62
g14
S'Comes with Kinect'
p63
sg16
I4
sg17
I2
sbasbsI15639472
(istructure
product
p64
(dp65
g3
I5
sg4
g50
sg10
(lp66
(istructure
pro_con
p67
(dp68
g14
S'Not FullHD'
p69
sg16
I2
sg17
I5
sbasg17
I15639472
sg18
(lp70
(istructure
pro_con
p71
(dp72
g14
S'$100 cheaper'
p73
sg16
I6
sg17
I2
sba(istructure
pro_con
p74
(dp75
g14
S'Great Games'
p76
sg16
I4
sg17
I3
sba(istructure
pro_con
p77
(dp78
g14
S'Entertainment Integration'
p79
sg16
I2
sg17
I4
sba(istructure
pro_con
p80
(dp81
g14
S'Kinect is a unique way to play'
p82
sg16
I0
sg17
I1
sbasbsI15153363
(istructure
product
p83
(dp84
g3
I2
sg4
g31
sg10
(lp85
(istructure
pro_con
p86
(dp87
g14
S'Not essential'
p88
sg16
I3
sg17
I2
sbasg17
I15153363
sg18
(lp89
(istructure
pro_con
p90
(dp91
g14
S'Inexpensive'
p92
sg16
I7
sg17
I1
sbasbsI14464597
(istructure
product
p93
(dp94
g3
I4
sg4
g31
sg10
(lp95
(istructure
pro_con
p96
(dp97
g14
S'720p'
p98
sg16
I4
sg17
I2
sba(istructure
pro_con
p99
(dp100
g14
S'Broke after a month'
p101
sg16
I-1
sg17
I3
sbasg17
I14464597
sg18
(lp102
(istructure
pro_con
p103
(dp104
g14
S'Inexpensive'
p105
sg16
I4
sg17
I1
sba(istructure
pro_con
p106
(dp107
g14
S'High Quality Screen'
p108
sg16
I-3
sg17
I4
sbasbsI14051076
(istructure
product
p109
(dp110
g3
I2
sg4
(istructure
dataModel
p111
(dp112
g7
S'save.p'
p113
sg9
g0
sbsg10
(lp114
(istructure
pro_con
p115
(dp116
g14
S'Expensive'
p117
sg16
I7
sg17
I2
sbasg17
I14051076
sg18
(lp118
(istructure
pro_con
p119
(dp120
g14
S'High Quality'
p121
sg16
I4
sg17
I1
sbasbsI14659644
(istructure
product
p122
(dp123
g3
I4
sg4
g5
sg10
(lp124
(istructure
pro_con
p125
(dp126
g14
S'Small Harddrive'
p127
sg16
I4
sg17
I4
sba(istructure
pro_con
p128
(dp129
g14
S'Outdated'
p130
sg16
I1
sg17
I3
sbasg17
I14659644
sg18
(lp131
(istructure
pro_con
p132
(dp133
g14
S'Great Game Library'
p134
sg16
I4
sg17
I2
sba(istructure
pro_con
p135
(dp136
g14
S'Inexpensive'
p137
sg16
I1
sg17
I1
sbasbs.